target datalayout = "e-m:e-p270:32:32-p271:32:32-p272:64:64-i64:64-i128:128-f80:128-n8:16:32:64-S128"
target triple = "x86_64-pc-linux-gnu"

%struct.ident_t = type { i32, i32, i32, i32, ptr }
%"struct.faiss::IndexBinaryHashStats" = type { i64, i64, i64, i64 }
%"class.std::__cxx11::basic_string" = type { %"struct.std::__cxx11::basic_string<char>::_Alloc_hider", i64, %union.anon }
%"struct.std::__cxx11::basic_string<char>::_Alloc_hider" = type { ptr }
%union.anon = type { i64, [8 x i8] }

@.str.2 = private unnamed_addr constant [63 x i8] c"Error: '%s' failed: search params not supported for this index\00", align 1
@.str.3 = private unnamed_addr constant [8 x i8] c"!params\00", align 1
@.str.4 = private unnamed_addr constant [115 x i8] c"generated/home/dtcxzyw/WorkSpace/Projects/compilers/llvm-opt-benchmark/bench/faiss/faiss/faiss/IndexBinaryHash.cpp\00", align 1
@_ZTIN5faiss14FaissExceptionE = external constant ptr
@4 = private unnamed_addr constant %struct.ident_t { i32 0, i32 2, i32 0, i32 22, ptr @0 }, align 8
@_ZN5faiss21indexBinaryHash_statsE = global %"struct.faiss::IndexBinaryHashStats" zeroinitializer, align 8
@__PRETTY_FUNCTION__._ZNK5faiss15IndexBinaryHash6searchElPKhlPiPlPKNS_16SearchParametersE = private unnamed_addr constant [127 x i8] c"virtual void faiss::IndexBinaryHash::search(idx_t, const uint8_t *, idx_t, int32_t *, idx_t *, const SearchParameters *) const\00", align 1
@.str.5 = private unnamed_addr constant [19 x i8] c"Error: '%s' failed\00", align 1
@.str.6 = private unnamed_addr constant [6 x i8] c"k > 0\00", align 1

; Function Attrs: mustprogress uwtable
define void @_ZNK5faiss15IndexBinaryHash6searchElPKhlPiPlPKNS_16SearchParametersE(ptr noundef nonnull align 8 dereferenceable(96) %0, i64 noundef %1, ptr noundef %2, i64 noundef %3, ptr noundef %4, ptr noundef %5, ptr noundef %6) unnamed_addr #2 align 2 personality ptr @__gxx_personality_v0 {
  %8 = alloca ptr, align 8
  %9 = alloca i64, align 8
  %10 = alloca ptr, align 8
  %11 = alloca i64, align 8
  %12 = alloca ptr, align 8
  %13 = alloca ptr, align 8
  %14 = alloca ptr, align 8
  %15 = alloca %"class.std::__cxx11::basic_string", align 8
  %16 = alloca i32, align 4
  %17 = alloca ptr, align 8
  %18 = alloca i32, align 4
  %19 = alloca %"class.std::__cxx11::basic_string", align 8
  %20 = alloca i32, align 4
  %21 = alloca i64, align 8
  %22 = alloca i64, align 8
  %23 = alloca i64, align 8
  %24 = alloca i32, align 4
  %25 = alloca i32, align 4
  %26 = call i32 @__kmpc_global_thread_num(ptr @4)
  store ptr %0, ptr %8, align 8
  store i64 %1, ptr %9, align 8
  store ptr %2, ptr %10, align 8
  store i64 %3, ptr %11, align 8
  store ptr %4, ptr %12, align 8
  store ptr %5, ptr %13, align 8
  store ptr %6, ptr %14, align 8
  %27 = load ptr, ptr %8, align 8
  br label %28

28:                                               ; preds = %7
  %29 = load ptr, ptr %14, align 8
  %30 = icmp ne ptr %29, null
  br i1 %30, label %31, label %54

31:                                               ; preds = %28
  br label %32

32:                                               ; preds = %31
  call void @_ZNSt7__cxx1112basic_stringIcSt11char_traitsIcESaIcEEC1Ev(ptr noundef nonnull align 8 dereferenceable(32) %15) #13
  %33 = call i32 (ptr, i64, ptr, ...) @snprintf(ptr noundef null, i64 noundef 0, ptr noundef @.str.2, ptr noundef @.str.3) #13
  store i32 %33, ptr %16, align 4
  %34 = load i32, ptr %16, align 4
  %35 = add nsw i32 %34, 1
  %36 = sext i32 %35 to i64
  invoke void @_ZNSt7__cxx1112basic_stringIcSt11char_traitsIcESaIcEE6resizeEm(ptr noundef nonnull align 8 dereferenceable(32) %15, i64 noundef %36)
          to label %37 unwind label %44

37:                                               ; preds = %32
  %38 = invoke noundef nonnull align 1 dereferenceable(1) ptr @_ZNSt7__cxx1112basic_stringIcSt11char_traitsIcESaIcEEixEm(ptr noundef nonnull align 8 dereferenceable(32) %15, i64 noundef 0)
          to label %39 unwind label %44

39:                                               ; preds = %37
  %40 = call noundef i64 @_ZNKSt7__cxx1112basic_stringIcSt11char_traitsIcESaIcEE4sizeEv(ptr noundef nonnull align 8 dereferenceable(32) %15) #13
  %41 = call i32 (ptr, i64, ptr, ...) @snprintf(ptr noundef %38, i64 noundef %40, ptr noundef @.str.2, ptr noundef @.str.3) #13
  %42 = call ptr @__cxa_allocate_exception(i64 40) #13
  invoke void @_ZN5faiss14FaissExceptionC1ERKNSt7__cxx1112basic_stringIcSt11char_traitsIcESaIcEEEPKcSA_i(ptr noundef nonnull align 8 dereferenceable(40) %42, ptr noundef nonnull align 8 dereferenceable(32) %15, ptr noundef @__PRETTY_FUNCTION__._ZNK5faiss15IndexBinaryHash6searchElPKhlPiPlPKNS_16SearchParametersE, ptr noundef @.str.4, i32 noundef 240)
          to label %43 unwind label %48

43:                                               ; preds = %39
  invoke void @__cxa_throw(ptr %42, ptr @_ZTIN5faiss14FaissExceptionE, ptr @_ZN5faiss14FaissExceptionD2Ev) #19
          to label %106 unwind label %44

44:                                               ; preds = %43, %37, %32
  %45 = landingpad { ptr, i32 }
          cleanup
  %46 = extractvalue { ptr, i32 } %45, 0
  store ptr %46, ptr %17, align 8
  %47 = extractvalue { ptr, i32 } %45, 1
  store i32 %47, ptr %18, align 4
  br label %52

48:                                               ; preds = %39
  %49 = landingpad { ptr, i32 }
          cleanup
  %50 = extractvalue { ptr, i32 } %49, 0
  store ptr %50, ptr %17, align 8
  %51 = extractvalue { ptr, i32 } %49, 1
  store i32 %51, ptr %18, align 4
  call void @__cxa_free_exception(ptr %42) #13
  br label %52

52:                                               ; preds = %48, %44
  call void @_ZNSt7__cxx1112basic_stringIcSt11char_traitsIcESaIcEED1Ev(ptr noundef nonnull align 8 dereferenceable(32) %15) #13
  br label %101

53:                                               ; No predecessors!
  br label %54

54:                                               ; preds = %53, %28
  br label %55

55:                                               ; preds = %54
  br label %56

56:                                               ; preds = %55
  %57 = load i64, ptr %11, align 8
  %58 = icmp sgt i64 %57, 0
  br i1 %58, label %82, label %59

59:                                               ; preds = %56
  br label %60

60:                                               ; preds = %59
  call void @_ZNSt7__cxx1112basic_stringIcSt11char_traitsIcESaIcEEC1Ev(ptr noundef nonnull align 8 dereferenceable(32) %19) #13
  %61 = call i32 (ptr, i64, ptr, ...) @snprintf(ptr noundef null, i64 noundef 0, ptr noundef @.str.5, ptr noundef @.str.6) #13
  store i32 %61, ptr %20, align 4
  %62 = load i32, ptr %20, align 4
  %63 = add nsw i32 %62, 1
  %64 = sext i32 %63 to i64
  invoke void @_ZNSt7__cxx1112basic_stringIcSt11char_traitsIcESaIcEE6resizeEm(ptr noundef nonnull align 8 dereferenceable(32) %19, i64 noundef %64)
          to label %65 unwind label %72

65:                                               ; preds = %60
  %66 = invoke noundef nonnull align 1 dereferenceable(1) ptr @_ZNSt7__cxx1112basic_stringIcSt11char_traitsIcESaIcEEixEm(ptr noundef nonnull align 8 dereferenceable(32) %19, i64 noundef 0)
          to label %67 unwind label %72

67:                                               ; preds = %65
  %68 = call noundef i64 @_ZNKSt7__cxx1112basic_stringIcSt11char_traitsIcESaIcEE4sizeEv(ptr noundef nonnull align 8 dereferenceable(32) %19) #13
  %69 = call i32 (ptr, i64, ptr, ...) @snprintf(ptr noundef %66, i64 noundef %68, ptr noundef @.str.5, ptr noundef @.str.6) #13
  %70 = call ptr @__cxa_allocate_exception(i64 40) #13
  invoke void @_ZN5faiss14FaissExceptionC1ERKNSt7__cxx1112basic_stringIcSt11char_traitsIcESaIcEEEPKcSA_i(ptr noundef nonnull align 8 dereferenceable(40) %70, ptr noundef nonnull align 8 dereferenceable(32) %19, ptr noundef @__PRETTY_FUNCTION__._ZNK5faiss15IndexBinaryHash6searchElPKhlPiPlPKNS_16SearchParametersE, ptr noundef @.str.4, i32 noundef 241)
          to label %71 unwind label %76

71:                                               ; preds = %67
  invoke void @__cxa_throw(ptr %70, ptr @_ZTIN5faiss14FaissExceptionE, ptr @_ZN5faiss14FaissExceptionD2Ev) #19
          to label %106 unwind label %72

72:                                               ; preds = %71, %65, %60
  %73 = landingpad { ptr, i32 }
          cleanup
  %74 = extractvalue { ptr, i32 } %73, 0
  store ptr %74, ptr %17, align 8
  %75 = extractvalue { ptr, i32 } %73, 1
  store i32 %75, ptr %18, align 4
  br label %80

76:                                               ; preds = %67
  %77 = landingpad { ptr, i32 }
          cleanup
  %78 = extractvalue { ptr, i32 } %77, 0
  store ptr %78, ptr %17, align 8
  %79 = extractvalue { ptr, i32 } %77, 1
  store i32 %79, ptr %18, align 4
  call void @__cxa_free_exception(ptr %70) #13
  br label %80

80:                                               ; preds = %76, %72
  call void @_ZNSt7__cxx1112basic_stringIcSt11char_traitsIcESaIcEED1Ev(ptr noundef nonnull align 8 dereferenceable(32) %19) #13
  br label %101

81:                                               ; No predecessors!
  br label %82

82:                                               ; preds = %81, %56
  br label %83

83:                                               ; preds = %82
  store i64 0, ptr %21, align 8
  store i64 0, ptr %22, align 8
  store i64 0, ptr %23, align 8
  %84 = load i64, ptr %9, align 8
  %85 = icmp sgt i64 %84, 100
  br i1 %85, label %86, label %87

86:                                               ; preds = %83
  call void (ptr, i32, ptr, ...) @__kmpc_fork_call(ptr @4, i32 9, ptr @_ZNK5faiss15IndexBinaryHash6searchElPKhlPiPlPKNS_16SearchParametersE.omp_outlined, ptr %9, ptr %12, ptr %11, ptr %13, ptr %10, ptr %27, ptr %23, ptr %21, ptr %22)
  br label %88

87:                                               ; preds = %83
  call void @__kmpc_serialized_parallel(ptr @4, i32 %26)
  store i32 %26, ptr %24, align 4
  store i32 0, ptr %25, align 4
  call void @_ZNK5faiss15IndexBinaryHash6searchElPKhlPiPlPKNS_16SearchParametersE.omp_outlined(ptr %24, ptr %25, ptr %9, ptr %12, ptr %11, ptr %13, ptr %10, ptr %27, ptr %23, ptr %21, ptr %22) #13
  call void @__kmpc_end_serialized_parallel(ptr @4, i32 %26)
  br label %88

88:                                               ; preds = %87, %86
  %89 = load i64, ptr %9, align 8
  %90 = load i64, ptr @_ZN5faiss21indexBinaryHash_statsE, align 8
  %91 = add i64 %90, %89
  store i64 %91, ptr @_ZN5faiss21indexBinaryHash_statsE, align 8
  %92 = load i64, ptr %23, align 8
  %93 = load i64, ptr getelementptr inbounds (%"struct.faiss::IndexBinaryHashStats", ptr @_ZN5faiss21indexBinaryHash_statsE, i32 0, i32 1), align 8
  %94 = add i64 %93, %92
  store i64 %94, ptr getelementptr inbounds (%"struct.faiss::IndexBinaryHashStats", ptr @_ZN5faiss21indexBinaryHash_statsE, i32 0, i32 1), align 8
  %95 = load i64, ptr %21, align 8
  %96 = load i64, ptr getelementptr inbounds (%"struct.faiss::IndexBinaryHashStats", ptr @_ZN5faiss21indexBinaryHash_statsE, i32 0, i32 2), align 8
  %97 = add i64 %96, %95
  store i64 %97, ptr getelementptr inbounds (%"struct.faiss::IndexBinaryHashStats", ptr @_ZN5faiss21indexBinaryHash_statsE, i32 0, i32 2), align 8
  %98 = load i64, ptr %22, align 8
  %99 = load i64, ptr getelementptr inbounds (%"struct.faiss::IndexBinaryHashStats", ptr @_ZN5faiss21indexBinaryHash_statsE, i32 0, i32 3), align 8
  %100 = add i64 %99, %98
  store i64 %100, ptr getelementptr inbounds (%"struct.faiss::IndexBinaryHashStats", ptr @_ZN5faiss21indexBinaryHash_statsE, i32 0, i32 3), align 8
  ret void

101:                                              ; preds = %80, %52
  %102 = load ptr, ptr %17, align 8
  %103 = load i32, ptr %18, align 4
  %104 = insertvalue { ptr, i32 } poison, ptr %102, 0
  %105 = insertvalue { ptr, i32 } %104, i32 %103, 1
  resume { ptr, i32 } %105

106:                                              ; preds = %71, %43
  unreachable
}